; Function Attrs: mustprogress uwtable
define hidden void @_ZN4cvc58internal3smt9SmtSolver22finishInitPreprocessorEv(ptr noundef nonnull align 8 dereferenceable(1288) %0) local_unnamed_addr #4 align 2 {
  %2 = getelementptr inbounds nuw i8, ptr %0, i64 8
  %3 = load ptr, ptr %2, align 8, !tbaa !70
  %4 = tail call noundef ptr @_ZN4cvc58internal3Env15getProofManagerEv(ptr noundef nonnull align 8 dereferenceable(696) %3)
  %.not = icmp eq ptr %4, null
  br i1 %.not, label %7, label %5

5:                                                ; preds = %1
  %6 = tail call noundef ptr @_ZNK4cvc58internal3smt9PfManager27getPreprocessProofGeneratorEv(ptr noundef nonnull align 8 dereferenceable(656) %4)
  br label %7

7:                                                ; preds = %5, %1
  %.0 = phi ptr [ %6, %5 ], [ null, %1 ]
  %8 = getelementptr inbounds nuw i8, ptr %0, i64 16
  %9 = getelementptr inbounds nuw i8, ptr %0, i64 1080
  %10 = load ptr, ptr %9, align 8, !tbaa !43
  %11 = getelementptr inbounds nuw i8, ptr %0, i64 1088
  %12 = load ptr, ptr %11, align 8, !tbaa !41
  tail call void @_ZN4cvc58internal3smt12Preprocessor10finishInitEPNS0_12TheoryEngineEPNS0_4prop10PropEngineEPNS1_24PreprocessProofGeneratorE(ptr noundef nonnull align 8 dereferenceable(712) %8, ptr noundef %10, ptr noundef %12, ptr noundef %.0)
  ret void
}